target datalayout = "e-m:e-p270:32:32-p271:32:32-p272:64:64-i64:64-i128:128-f80:128-n8:16:32:64-S128"
target triple = "x86_64-pc-linux-gnu"

%struct.engine_st = type { ptr, ptr, ptr, ptr, ptr, ptr, ptr, ptr, ptr, ptr, ptr, ptr, ptr, ptr, ptr, ptr, ptr, ptr, ptr, i32, %struct.CRYPTO_REF_COUNT, i32, %struct.crypto_ex_data_st, ptr, ptr, ptr, ptr, ptr }
%struct.CRYPTO_REF_COUNT = type { i32 }
%struct.crypto_ex_data_st = type { ptr, ptr }

@.str = private unnamed_addr constant [35 x i8] c"../openssl/crypto/engine/eng_lib.c\00", align 1

; Function Attrs: inlinehint nounwind uwtable
define internal void @CRYPTO_FREE_REF(ptr noundef %0) #3 {
  %2 = alloca ptr, align 8
  store ptr %0, ptr %2, align 8, !tbaa !7
  ret void
}

; Function Attrs: inlinehint nounwind uwtable
define internal i32 @CRYPTO_DOWN_REF(ptr noundef %0, ptr noundef %1) #3 {
  %3 = alloca ptr, align 8
  %4 = alloca ptr, align 8
  %5 = alloca i32, align 4
  %6 = alloca i32, align 4
  store ptr %0, ptr %3, align 8, !tbaa !7
  store ptr %1, ptr %4, align 8, !tbaa !41
  %7 = load ptr, ptr %3, align 8, !tbaa !7
  %8 = getelementptr inbounds nuw %struct.CRYPTO_REF_COUNT, ptr %7, i32 0, i32 0
  store i32 1, ptr %5, align 4, !tbaa !3
  %9 = load i32, ptr %5, align 4
  %10 = atomicrmw sub ptr %8, i32 %9 release, align 4
  store i32 %10, ptr %6, align 4
  %11 = load i32, ptr %6, align 4, !tbaa !3
  %12 = sub nsw i32 %11, 1
  %13 = load ptr, ptr %4, align 8, !tbaa !41
  store i32 %12, ptr %13, align 4, !tbaa !3
  %14 = load ptr, ptr %4, align 8, !tbaa !41
  %15 = load i32, ptr %14, align 4, !tbaa !3
  %16 = icmp eq i32 %15, 0
  br i1 %16, label %17, label %18

17:                                               ; preds = %2
  fence acquire
  br label %18

18:                                               ; preds = %17, %2
  ret i32 1
}

; Function Attrs: nounwind uwtable
define i32 @engine_free_util(ptr noundef %0, i32 noundef %1) #0 {
  %3 = alloca i32, align 4
  %4 = alloca ptr, align 8
  %5 = alloca i32, align 4
  %6 = alloca i32, align 4
  %7 = alloca i32, align 4
  store ptr %0, ptr %4, align 8, !tbaa !9
  store i32 %1, ptr %5, align 4, !tbaa !3
  call void @llvm.lifetime.start.p0(i64 4, ptr %6) #4
  %8 = load ptr, ptr %4, align 8, !tbaa !9
  %9 = icmp eq ptr %8, null
  br i1 %9, label %10, label %11

10:                                               ; preds = %2
  store i32 1, ptr %3, align 4
  store i32 1, ptr %7, align 4
  br label %40

11:                                               ; preds = %2
  %12 = load ptr, ptr %4, align 8, !tbaa !9
  %13 = getelementptr inbounds nuw %struct.engine_st, ptr %12, i32 0, i32 20
  %14 = call i32 @CRYPTO_DOWN_REF(ptr noundef %13, ptr noundef %6)
  %15 = load i32, ptr %6, align 4, !tbaa !3
  %16 = icmp sgt i32 %15, 0
  br i1 %16, label %17, label %18

17:                                               ; preds = %11
  store i32 1, ptr %3, align 4
  store i32 1, ptr %7, align 4
  br label %40

18:                                               ; preds = %11
  %19 = load ptr, ptr %4, align 8, !tbaa !9
  call void @engine_pkey_meths_free(ptr noundef %19)
  %20 = load ptr, ptr %4, align 8, !tbaa !9
  call void @engine_pkey_asn1_meths_free(ptr noundef %20)
  %21 = load ptr, ptr %4, align 8, !tbaa !9
  %22 = getelementptr inbounds nuw %struct.engine_st, ptr %21, i32 0, i32 11
  %23 = load ptr, ptr %22, align 8, !tbaa !32
  %24 = icmp ne ptr %23, null
  br i1 %24, label %25, label %31

25:                                               ; preds = %18
  %26 = load ptr, ptr %4, align 8, !tbaa !9
  %27 = getelementptr inbounds nuw %struct.engine_st, ptr %26, i32 0, i32 11
  %28 = load ptr, ptr %27, align 8, !tbaa !32
  %29 = load ptr, ptr %4, align 8, !tbaa !9
  %30 = call i32 %28(ptr noundef %29)
  br label %31

31:                                               ; preds = %25, %18
  %32 = load ptr, ptr %4, align 8, !tbaa !9
  %33 = load i32, ptr %5, align 4, !tbaa !3
  call void @engine_remove_dynamic_id(ptr noundef %32, i32 noundef %33)
  %34 = load ptr, ptr %4, align 8, !tbaa !9
  %35 = load ptr, ptr %4, align 8, !tbaa !9
  %36 = getelementptr inbounds nuw %struct.engine_st, ptr %35, i32 0, i32 22
  call void @CRYPTO_free_ex_data(i32 noundef 10, ptr noundef %34, ptr noundef %36)
  %37 = load ptr, ptr %4, align 8, !tbaa !9
  %38 = getelementptr inbounds nuw %struct.engine_st, ptr %37, i32 0, i32 20
  call void @CRYPTO_FREE_REF(ptr noundef %38)
  %39 = load ptr, ptr %4, align 8, !tbaa !9
  call void @CRYPTO_free(ptr noundef %39, ptr noundef @.str, i32 noundef 100)
  store i32 1, ptr %3, align 4
  store i32 1, ptr %7, align 4
  br label %40

40:                                               ; preds = %31, %17, %10
  call void @llvm.lifetime.end.p0(i64 4, ptr %6) #4
  %41 = load i32, ptr %3, align 4
  ret i32 %41
}

; Function Attrs: nounwind uwtable
define i32 @ENGINE_free(ptr noundef %0) #0 {
  %2 = alloca ptr, align 8
  store ptr %0, ptr %2, align 8, !tbaa !9
  %3 = load ptr, ptr %2, align 8, !tbaa !9
  %4 = call i32 @engine_free_util(ptr noundef %3, i32 noundef 1)
  ret i32 %4
}