; Function Attrs: nounwind uwtable
define noundef i32 @ENGINE_free(ptr noundef %0) local_unnamed_addr #0 {
  %2 = icmp eq ptr %0, null
  br i1 %2, label %engine_free_util.exit, label %3

3:                                                ; preds = %1
  %4 = getelementptr inbounds nuw i8, ptr %0, i64 156
  %5 = atomicrmw sub ptr %4, i32 1 release, align 4
  %6 = icmp eq i32 %5, 1
  br i1 %6, label %CRYPTO_DOWN_REF.exit.thread.i, label %CRYPTO_DOWN_REF.exit.i

CRYPTO_DOWN_REF.exit.thread.i:                    ; preds = %3
  fence acquire
  br label %8

CRYPTO_DOWN_REF.exit.i:                           ; preds = %3
  %7 = icmp sgt i32 %5, 1
  br i1 %7, label %engine_free_util.exit, label %8

8:                                                ; preds = %CRYPTO_DOWN_REF.exit.i, %CRYPTO_DOWN_REF.exit.thread.i
  tail call void @engine_pkey_meths_free(ptr noundef nonnull %0) #6
  tail call void @engine_pkey_asn1_meths_free(ptr noundef nonnull %0) #6
  %9 = getelementptr inbounds nuw i8, ptr %0, i64 88
  %10 = load ptr, ptr %9, align 8, !tbaa !26
  %.not.i = icmp eq ptr %10, null
  br i1 %.not.i, label %13, label %11

11:                                               ; preds = %8
  %12 = tail call i32 %10(ptr noundef nonnull %0) #6
  br label %13

13:                                               ; preds = %11, %8
  tail call void @engine_remove_dynamic_id(ptr noundef nonnull %0, i32 noundef 1) #6
  %14 = getelementptr inbounds nuw i8, ptr %0, i64 168
  tail call void @CRYPTO_free_ex_data(i32 noundef 10, ptr noundef nonnull %0, ptr noundef nonnull %14) #6
  tail call void @CRYPTO_free(ptr noundef nonnull %0, ptr noundef nonnull @.str, i32 noundef 100) #6
  br label %engine_free_util.exit

engine_free_util.exit:                            ; preds = %1, %CRYPTO_DOWN_REF.exit.i, %13
  ret i32 1
}